target datalayout = "e-m:e-p270:32:32-p271:32:32-p272:64:64-i64:64-i128:128-f80:128-n8:16:32:64-S128"
target triple = "x86_64-pc-linux-gnu"

%struct.PQcommMethods = type { ptr, ptr, ptr, ptr, ptr, ptr }

@PqCommMethods = dso_local global ptr @PqCommSocketMethods, align 8
@PqSendBufferSize = internal global i32 0, align 4
@PqSendBuffer = internal global ptr null, align 8
@PqSendPointer = internal global i64 0, align 8

; Function Attrs: nounwind uwtable
define internal void @socket_putmessage_noblock(i8 noundef signext %0, ptr noundef %1, i64 noundef %2) #0 {
  %4 = alloca i8, align 1
  %5 = alloca ptr, align 8
  %6 = alloca i64, align 8
  %7 = alloca i32, align 4
  %8 = alloca i32, align 4
  store i8 %0, ptr %4, align 1
  store ptr %1, ptr %5, align 8
  store i64 %2, ptr %6, align 8
  call void @llvm.lifetime.start.p0(i64 4, ptr %7) #14
  call void @llvm.lifetime.start.p0(i64 4, ptr %8) #14
  %9 = load i64, ptr @PqSendPointer, align 8
  %10 = add i64 %9, 1
  %11 = add i64 %10, 4
  %12 = load i64, ptr %6, align 8
  %13 = add i64 %11, %12
  %14 = trunc i64 %13 to i32
  store i32 %14, ptr %8, align 4
  %15 = load i32, ptr %8, align 4
  %16 = load i32, ptr @PqSendBufferSize, align 4
  %17 = icmp sgt i32 %15, %16
  br i1 %17, label %18, label %24

18:                                               ; preds = %3
  %19 = load ptr, ptr @PqSendBuffer, align 8
  %20 = load i32, ptr %8, align 4
  %21 = sext i32 %20 to i64
  %22 = call ptr @repalloc(ptr noundef %19, i64 noundef %21)
  store ptr %22, ptr @PqSendBuffer, align 8
  %23 = load i32, ptr %8, align 4
  store i32 %23, ptr @PqSendBufferSize, align 4
  br label %24

24:                                               ; preds = %18, %3
  %25 = load ptr, ptr @PqCommMethods, align 8
  %26 = getelementptr inbounds nuw %struct.PQcommMethods, ptr %25, i32 0, i32 4
  %27 = load ptr, ptr %26, align 8
  %28 = load i8, ptr %4, align 1
  %29 = load ptr, ptr %5, align 8
  %30 = load i64, ptr %6, align 8
  %31 = call i32 %27(i8 noundef signext %28, ptr noundef %29, i64 noundef %30)
  store i32 %31, ptr %7, align 4
  call void @llvm.lifetime.end.p0(i64 4, ptr %8) #14
  call void @llvm.lifetime.end.p0(i64 4, ptr %7) #14
  ret void
}