; Function Attrs: nounwind uwtable
define internal void @socket_putmessage_noblock(i8 noundef signext %0, ptr noundef %1, i64 noundef %2) #0 {
  %4 = load i64, ptr @PqSendPointer, align 8
  %5 = add i64 %2, 5
  %6 = add i64 %5, %4
  %7 = trunc i64 %6 to i32
  %8 = load i32, ptr @PqSendBufferSize, align 4
  %9 = icmp slt i32 %8, %7
  br i1 %9, label %10, label %14

10:                                               ; preds = %3
  %11 = load ptr, ptr @PqSendBuffer, align 8
  %12 = and i64 %6, 4294967295
  %13 = tail call ptr @repalloc(ptr noundef %11, i64 noundef %12) #21
  store ptr %13, ptr @PqSendBuffer, align 8
  store i32 %7, ptr @PqSendBufferSize, align 4
  br label %14

14:                                               ; preds = %10, %3
  %15 = load ptr, ptr @PqCommMethods, align 8
  %16 = getelementptr inbounds nuw i8, ptr %15, i64 32
  %17 = load ptr, ptr %16, align 8
  %18 = tail call i32 %17(i8 noundef signext %0, ptr noundef %1, i64 noundef %2) #21
  ret void
}